; Function Attrs: mustprogress nounwind uwtable
define noundef zeroext i1 @_ZNK4LIEF3ELF7GnuHash5checkERKNSt7__cxx1112basic_stringIcSt11char_traitsIcESaIcEEE(ptr noundef nonnull readonly align 8 captures(none) dereferenceable(96) %0, ptr noundef nonnull readonly align 8 captures(none) dereferenceable(32) %1) local_unnamed_addr #0 align 2 {
  %3 = load ptr, ptr %1, align 8, !tbaa !32
  %4 = tail call noundef i32 @_ZN4LIEF3ELF11dl_new_hashEPKc(ptr noundef %3) #11
  %5 = getelementptr inbounds nuw i8, ptr %0, i64 88
  %6 = load i64, ptr %5, align 8, !tbaa !30
  %7 = getelementptr inbounds nuw i8, ptr %0, i64 12
  %8 = load i32, ptr %7, align 4, !tbaa !23
  %9 = lshr i32 %4, %8
  %10 = zext i32 %4 to i64
  %11 = udiv i64 %10, %6
  %12 = getelementptr inbounds nuw i8, ptr %0, i64 16
  %13 = getelementptr inbounds nuw i8, ptr %0, i64 24
  %14 = load ptr, ptr %13, align 8, !tbaa !25
  %15 = load ptr, ptr %12, align 8, !tbaa !24
  %16 = ptrtoint ptr %14 to i64
  %17 = ptrtoint ptr %15 to i64
  %18 = sub i64 %16, %17
  %19 = lshr exact i64 %18, 3
  %20 = trunc i64 %19 to i32
  %.lhs.trunc.i.i = trunc nuw i64 %11 to i32
  %21 = urem i32 %.lhs.trunc.i.i, %20
  %.zext.i.i = zext i32 %21 to i64
  %22 = urem i64 %10, %6
  %23 = zext i32 %9 to i64
  %24 = urem i64 %23, %6
  %25 = getelementptr inbounds nuw i64, ptr %15, i64 %.zext.i.i
  %26 = load i64, ptr %25, align 8, !tbaa !31
  %27 = lshr i64 %26, %22
  %28 = lshr i64 %26, %24
  %29 = and i64 %28, 1
  %30 = and i64 %29, %27
  %.not.i = icmp eq i64 %30, 0
  br i1 %.not.i, label %_ZNK4LIEF3ELF7GnuHash5checkEj.exit, label %31

31:                                               ; preds = %2
  %32 = getelementptr inbounds nuw i8, ptr %0, i64 40
  %33 = getelementptr inbounds nuw i8, ptr %0, i64 48
  %34 = load ptr, ptr %33, align 8, !tbaa !28
  %35 = load ptr, ptr %32, align 8, !tbaa !27
  %36 = ptrtoint ptr %34 to i64
  %37 = ptrtoint ptr %35 to i64
  %38 = sub i64 %36, %37
  %39 = lshr exact i64 %38, 2
  %40 = trunc i64 %39 to i32
  %41 = urem i32 %4, %40
  %42 = zext i32 %41 to i64
  %43 = getelementptr inbounds nuw i32, ptr %35, i64 %42
  %44 = load i32, ptr %43, align 4, !tbaa !36
  %45 = icmp ne i32 %44, 0
  br label %_ZNK4LIEF3ELF7GnuHash5checkEj.exit

_ZNK4LIEF3ELF7GnuHash5checkEj.exit:               ; preds = %2, %31
  %.0.i = phi i1 [ false, %2 ], [ %45, %31 ]
  ret i1 %.0.i
}